; Function Attrs: nounwind uwtable
define hidden ptr @mi_heap_get_backing() local_unnamed_addr #0 {
  tail call void @mi_thread_init() #11
  %1 = tail call align 8 ptr @llvm.threadlocal.address.p0(ptr align 8 @_mi_heap_default)
  %2 = load ptr, ptr %1, align 8, !tbaa !40
  %3 = load ptr, ptr %2, align 8, !tbaa !14
  %4 = getelementptr inbounds nuw i8, ptr %3, i64 16
  %5 = load ptr, ptr %4, align 8, !tbaa !15
  ret ptr %5
}